; Function Attrs: mustprogress uwtable
define internal noundef i32 @_ZN8nanobind6detailL10inst_clearEP7_object(ptr noundef %0) #0 {
  %2 = getelementptr inbounds nuw i8, ptr %0, i64 8
  %3 = load ptr, ptr %2, align 8
  %4 = getelementptr inbounds nuw i8, ptr %3, i64 288
  %5 = load i64, ptr %4, align 8
  %.not.i = icmp eq i64 %5, 0
  %6 = getelementptr inbounds i8, ptr %0, i64 %5
  %.not9 = icmp eq ptr %0, null
  %.not = or i1 %.not9, %.not.i
  br i1 %.not, label %_ZL10_Py_DECREFP7_object.exit, label %7

7:                                                ; preds = %1
  %8 = load ptr, ptr %6, align 8
  %.not7 = icmp eq ptr %8, null
  br i1 %.not7, label %_ZL10_Py_DECREFP7_object.exit, label %9

9:                                                ; preds = %7
  store ptr null, ptr %6, align 8
  %10 = load i64, ptr %8, align 8
  %11 = add nsw i64 %10, -1
  store i64 %11, ptr %8, align 8
  %.not.i8 = icmp eq i64 %11, 0
  br i1 %.not.i8, label %12, label %_ZL10_Py_DECREFP7_object.exit

12:                                               ; preds = %9
  tail call void @_Py_Dealloc(ptr noundef nonnull %8)
  br label %_ZL10_Py_DECREFP7_object.exit

_ZL10_Py_DECREFP7_object.exit:                    ; preds = %12, %9, %7, %1
  ret i32 0
}